target datalayout = "e-m:e-p270:32:32-p271:32:32-p272:64:64-i64:64-i128:128-f80:128-n8:16:32:64-S128"
target triple = "x86_64-pc-linux-gnu"

%struct._psqlSettings = type { ptr, i32, ptr, i8, ptr, ptr, %struct.printQueryOpt, ptr, ptr, ptr, i8, i8, i32, i32, ptr, ptr, i8, [4 x ptr], i8, i32, ptr, i8, i32, ptr, ptr, i64, i64, i8, ptr, ptr, ptr, i8, i8, i8, i8, i8, i8, i8, i32, i32, i32, i32, i32, i32, i32, i32, ptr, ptr, ptr, i32, i8, i32 }
%struct.printQueryOpt = type { %struct.printTableOpt, ptr, ptr, ptr, i8, ptr, i32 }
%struct.printTableOpt = type { i32, i16, i32, i32, i16, i16, i32, i8, i8, i8, i8, i64, ptr, %struct.separator, %struct.separator, [2 x i8], i8, ptr, i32, i32, i32, i32, i32, i32 }
%struct.separator = type { ptr, i8 }
%struct.PQExpBufferData = type { ptr, i64, i64 }

@pset = external global %struct._psqlSettings, align 8
@.str.2669 = private unnamed_addr constant [97 x i8] c"SELECT vartype FROM pg_catalog.pg_settings WHERE pg_catalog.lower(name) = pg_catalog.lower('%s')\00", align 1

; Function Attrs: nounwind uwtable
define internal ptr @exec_query(ptr noundef %0) #0 {
  %2 = alloca ptr, align 8
  %3 = alloca ptr, align 8
  %4 = alloca ptr, align 8
  %5 = alloca i32, align 4
  store ptr %0, ptr %3, align 8
  call void @llvm.lifetime.start.p0(i64 8, ptr %4) #8
  %6 = load ptr, ptr %3, align 8
  %7 = icmp eq ptr %6, null
  br i1 %7, label %15, label %8

8:                                                ; preds = %1
  %9 = load ptr, ptr @pset, align 8
  %10 = icmp ne ptr %9, null
  br i1 %10, label %11, label %15

11:                                               ; preds = %8
  %12 = load ptr, ptr @pset, align 8
  %13 = call i32 @PQstatus(ptr noundef %12)
  %14 = icmp ne i32 %13, 0
  br i1 %14, label %15, label %16

15:                                               ; preds = %11, %8, %1
  store ptr null, ptr %2, align 8
  store i32 1, ptr %5, align 4
  br label %27

16:                                               ; preds = %11
  %17 = load ptr, ptr @pset, align 8
  %18 = load ptr, ptr %3, align 8
  %19 = call ptr @PQexec(ptr noundef %17, ptr noundef %18)
  store ptr %19, ptr %4, align 8
  %20 = load ptr, ptr %4, align 8
  %21 = call i32 @PQresultStatus(ptr noundef %20)
  %22 = icmp ne i32 %21, 2
  br i1 %22, label %23, label %25

23:                                               ; preds = %16
  %24 = load ptr, ptr %4, align 8
  call void @PQclear(ptr noundef %24)
  store ptr null, ptr %4, align 8
  br label %25

25:                                               ; preds = %23, %16
  %26 = load ptr, ptr %4, align 8
  store ptr %26, ptr %2, align 8
  store i32 1, ptr %5, align 4
  br label %27

27:                                               ; preds = %25, %15
  call void @llvm.lifetime.end.p0(i64 8, ptr %4) #8
  %28 = load ptr, ptr %2, align 8
  ret ptr %28
}

; Function Attrs: nounwind uwtable
define internal ptr @escape_string(ptr noundef %0) #0 {
  %2 = alloca ptr, align 8
  %3 = alloca i64, align 8
  %4 = alloca ptr, align 8
  store ptr %0, ptr %2, align 8
  call void @llvm.lifetime.start.p0(i64 8, ptr %3) #8
  call void @llvm.lifetime.start.p0(i64 8, ptr %4) #8
  %5 = load ptr, ptr %2, align 8
  %6 = call i64 @strlen(ptr noundef %5) #9
  store i64 %6, ptr %3, align 8
  %7 = load i64, ptr %3, align 8
  %8 = mul i64 %7, 2
  %9 = add i64 %8, 1
  %10 = call ptr @pg_malloc(i64 noundef %9)
  store ptr %10, ptr %4, align 8
  %11 = load ptr, ptr @pset, align 8
  %12 = load ptr, ptr %4, align 8
  %13 = load ptr, ptr %2, align 8
  %14 = load i64, ptr %3, align 8
  %15 = call i64 @PQescapeStringConn(ptr noundef %11, ptr noundef %12, ptr noundef %13, i64 noundef %14, ptr noundef null)
  %16 = load ptr, ptr %4, align 8
  call void @llvm.lifetime.end.p0(i64 8, ptr %4) #8
  call void @llvm.lifetime.end.p0(i64 8, ptr %3) #8
  ret ptr %16
}

; Function Attrs: nounwind uwtable
define internal ptr @get_guctype(ptr noundef %0) #0 {
  %2 = alloca ptr, align 8
  %3 = alloca %struct.PQExpBufferData, align 8
  %4 = alloca ptr, align 8
  %5 = alloca ptr, align 8
  %6 = alloca ptr, align 8
  store ptr %0, ptr %2, align 8
  call void @llvm.lifetime.start.p0(i64 24, ptr %3) #8
  call void @llvm.lifetime.start.p0(i64 8, ptr %4) #8
  call void @llvm.lifetime.start.p0(i64 8, ptr %5) #8
  call void @llvm.lifetime.start.p0(i64 8, ptr %6) #8
  store ptr null, ptr %6, align 8
  %7 = load ptr, ptr %2, align 8
  %8 = call ptr @escape_string(ptr noundef %7)
  store ptr %8, ptr %4, align 8
  call void @initPQExpBuffer(ptr noundef %3)
  %9 = load ptr, ptr %4, align 8
  call void (ptr, ptr, ...) @appendPQExpBuffer(ptr noundef %3, ptr noundef @.str.2669, ptr noundef %9)
  %10 = getelementptr inbounds nuw %struct.PQExpBufferData, ptr %3, i32 0, i32 0
  %11 = load ptr, ptr %10, align 8
  %12 = call ptr @exec_query(ptr noundef %11)
  store ptr %12, ptr %5, align 8
  call void @termPQExpBuffer(ptr noundef %3)
  %13 = load ptr, ptr %4, align 8
  call void @free(ptr noundef %13) #8
  %14 = load ptr, ptr %5, align 8
  %15 = call i32 @PQresultStatus(ptr noundef %14)
  %16 = icmp eq i32 %15, 2
  br i1 %16, label %17, label %25

17:                                               ; preds = %1
  %18 = load ptr, ptr %5, align 8
  %19 = call i32 @PQntuples(ptr noundef %18)
  %20 = icmp sgt i32 %19, 0
  br i1 %20, label %21, label %25

21:                                               ; preds = %17
  %22 = load ptr, ptr %5, align 8
  %23 = call ptr @PQgetvalue(ptr noundef %22, i32 noundef 0, i32 noundef 0)
  %24 = call ptr @pg_strdup(ptr noundef %23)
  store ptr %24, ptr %6, align 8
  br label %25

25:                                               ; preds = %21, %17, %1
  %26 = load ptr, ptr %5, align 8
  call void @PQclear(ptr noundef %26)
  %27 = load ptr, ptr %6, align 8
  call void @llvm.lifetime.end.p0(i64 8, ptr %6) #8
  call void @llvm.lifetime.end.p0(i64 8, ptr %5) #8
  call void @llvm.lifetime.end.p0(i64 8, ptr %4) #8
  call void @llvm.lifetime.end.p0(i64 24, ptr %3) #8
  ret ptr %27
}