; Function Attrs: nounwind uwtable
define internal fastcc ptr @get_guctype(ptr noundef %0) unnamed_addr #0 {
  %2 = alloca %struct.PQExpBufferData, align 8
  call void @llvm.lifetime.start.p0(i64 24, ptr nonnull %2) #11
  %3 = tail call i64 @strlen(ptr noundef nonnull dereferenceable(1) %0) #13
  %4 = shl i64 %3, 1
  %5 = or disjoint i64 %4, 1
  %6 = tail call ptr @pg_malloc(i64 noundef %5) #11
  %7 = load ptr, ptr @pset, align 8
  %8 = tail call i64 @PQescapeStringConn(ptr noundef %7, ptr noundef %6, ptr noundef nonnull %0, i64 noundef %3, ptr noundef null) #11
  call void @initPQExpBuffer(ptr noundef nonnull %2) #11
  call void (ptr, ptr, ...) @appendPQExpBuffer(ptr noundef nonnull %2, ptr noundef nonnull @.str.2669, ptr noundef %6) #11
  %9 = load ptr, ptr %2, align 8
  %10 = icmp ne ptr %9, null
  %11 = load ptr, ptr @pset, align 8
  %12 = icmp ne ptr %11, null
  %or.cond.i = select i1 %10, i1 %12, i1 false
  br i1 %or.cond.i, label %13, label %exec_query.exit

13:                                               ; preds = %1
  %14 = call i32 @PQstatus(ptr noundef nonnull %11) #11
  %.not.i = icmp eq i32 %14, 0
  br i1 %.not.i, label %15, label %exec_query.exit

15:                                               ; preds = %13
  %16 = load ptr, ptr @pset, align 8
  %17 = call ptr @PQexec(ptr noundef %16, ptr noundef nonnull %9) #11
  %18 = call i32 @PQresultStatus(ptr noundef %17) #11
  %.not10.i = icmp eq i32 %18, 2
  br i1 %.not10.i, label %exec_query.exit, label %19

19:                                               ; preds = %15
  call void @PQclear(ptr noundef %17) #11
  br label %exec_query.exit

exec_query.exit:                                  ; preds = %1, %13, %15, %19
  %.07.i = phi ptr [ null, %13 ], [ null, %1 ], [ null, %19 ], [ %17, %15 ]
  call void @termPQExpBuffer(ptr noundef nonnull %2) #11
  call void @free(ptr noundef %6) #11
  %20 = call i32 @PQresultStatus(ptr noundef %.07.i) #11
  %21 = icmp eq i32 %20, 2
  br i1 %21, label %22, label %28

22:                                               ; preds = %exec_query.exit
  %23 = call i32 @PQntuples(ptr noundef %.07.i) #11
  %24 = icmp sgt i32 %23, 0
  br i1 %24, label %25, label %28

25:                                               ; preds = %22
  %26 = call ptr @PQgetvalue(ptr noundef %.07.i, i32 noundef 0, i32 noundef 0) #11
  %27 = call ptr @pg_strdup(ptr noundef %26) #11
  br label %28

28:                                               ; preds = %25, %22, %exec_query.exit
  %.0 = phi ptr [ %27, %25 ], [ null, %22 ], [ null, %exec_query.exit ]
  call void @PQclear(ptr noundef %.07.i) #11
  call void @llvm.lifetime.end.p0(i64 24, ptr nonnull %2) #11
  ret ptr %.0
}